(dp1
S'output'
p2
S'missing "pass" in view'
p3
sS'layer'
p4
S'ParserContainer'
p5
sS'code'
p6
S'response.write(\'<!--[if HTML5]><![endif]-->\\n<!DOCTYPE html>\\n<!-- paulirish.com/2008/conditional-stylesheets-vs-css-hacks-answer-neither/ -->\\n<!--[if lt IE 7]><html class="ie ie6 ie-lte9 ie-lte8 ie-lte7 no-js" lang="\', escape=False)\nresponse.write(T.accepted_language or \'en\')\nresponse.write(\'"> <![endif]-->\\n<!--[if IE 7]><html class="ie ie7 ie-lte9 ie-lte8 ie-lte7 no-js" lang="\', escape=False)\nresponse.write(T.accepted_language or \'en\')\nresponse.write(\'"> <![endif]-->\\n<!--[if IE 8]><html class="ie ie8 ie-lte9 ie-lte8 no-js" lang="\', escape=False)\nresponse.write(T.accepted_language or \'en\')\nresponse.write(\'"> <![endif]-->\\n<!--[if IE 9]><html class="ie9 ie-lte9 no-js" lang="\', escape=False)\nresponse.write(T.accepted_language or \'en\')\nresponse.write(\'"> <![endif]-->\\n<!--[if (gt IE 9)|!(IE)]><!-->\\n<html class="no-js" lang="\', escape=False)\nresponse.write(T.accepted_language or \'en\')\nresponse.write(\'"> <!--<![endif]-->\\n<head>\\n    <title>\', escape=False)\nresponse.write(response.title or request.application)\nresponse.write(\'</title>\\n    <!--[if !HTML5]>\\n      <meta http-equiv="X-UA-Compatible" content="IE=edge\', escape=False)\nresponse.write(not request.is_local and \',chrome=1\' or \'\')\nresponse.write(\'">\\n  <![endif]-->\\n    <!-- www.phpied.com/conditional-comments-block-downloads/ -->\\n    <!-- Always force latest IE rendering engine\\n         (even in intranet) & Chrome Frame\\n         Remove this if you use the .htaccess -->\\n\\n    <meta charset="utf-8"/>\\n\\n    <!-- http://dev.w3.org/html5/markup/meta.name.html -->\\n    <meta name="application-name" content="\', escape=False)\nresponse.write(request.application)\nresponse.write(\'"/>\\n\\n    <!-- Speaking of Google, don\\\'t forget to set your site up:\\n         http://google.com/webmasters -->\\n    <meta name="google-site-verification" content=""/>\\n\\n    <!--  Mobile Viewport Fix\\n          j.mp/mobileviewport & davidbcalhoun.com/2010/viewport-metatag\\n          device-width: Occupy full width of the screen in its current orientation\\n          initial-scale = 1.0 retains dimensions instead of zooming out if page height > device height\\n          user-scalable = yes allows the user to zoom in -->\\n    <meta name="viewport" content="width=device-width, initial-scale=1.0"/>\\n\\n    <link rel="shortcut icon" href="\', escape=False)\nresponse.write(URL(\'static\',\'images/favicon.ico\'))\nresponse.write(\'" type="image/x-icon">\\n    <link rel="apple-touch-icon" href="\', escape=False)\nresponse.write(URL(\'static\',\'images/favicon.png\'))\nresponse.write(\'">\\n\\n    <!-- All JavaScript at the bottom, except for Modernizr which enables\\n         HTML5 elements & feature detects -->\\n    <script src="\', escape=False)\nresponse.write(URL(\'static\',\'js/modernizr.custom.js\'))\nresponse.write(\'"></script>\\n\\n    <!-- include stylesheets -->\\n\', escape=False)\nresponse.files.insert(0,URL(\'static\',\'css/web2py.css\'))\nresponse.files.insert(1,URL(\'static\',\'css/bootstrap.min.css\'))\nresponse.files.insert(2,URL(\'static\',\'css/bootstrap-responsive.min.css\'))\nresponse.files.insert(3,URL(\'static\',\'css/web2py_bootstrap.css\'))\nresponse.files.insert(4,URL(\'static\',\'css/icons.css\'))\nresponse.files.insert(5,URL(\'static\',\'css/scdm-basic.css\'))\nresponse.files.insert(6,URL(\'static\',\'css/scdm-bootstrap.css\'))\nresponse.files.insert(7,URL(\'static\',\'css/scdm-menu.css\'))\nresponse.write(\'\\n\\n\', escape=False)\nresponse.write(\'<script type="text/javascript"><!--\\n    // These variables are used by the web2py_ajax_init function in web2py_ajax.js (which is loaded below).\\n    var w2p_ajax_confirm_message = "\', escape=False)\nresponse.write(T(\'Are you sure you want to delete this object?\'))\nresponse.write(\'";\\n    var w2p_ajax_disable_with_message = "\', escape=False)\nresponse.write(T(\'Working...\'))\nresponse.write(\'";\\n    var w2p_ajax_date_format = "\', escape=False)\nresponse.write(T(\'%Y-%m-%d\'))\nresponse.write(\'";\\n    var w2p_ajax_datetime_format = "\', escape=False)\nresponse.write(T(\'%Y-%m-%d %H:%M:%S\'))\nresponse.write(\'";\\n    var ajax_error_500 = \\\'\', escape=False)\nresponse.write(T.M(\'An error occured, please [[reload %s]] the page\') % URL(args=request.args, vars=request.get_vars))\nresponse.write("\'\\n    //--></script>\\n", escape=False)\nresponse.files.insert(0,URL(\'static\',\'js/jquery.js\'))\nresponse.files.insert(1,URL(\'static\',\'css/calendar.css\'))\nresponse.files.insert(2,URL(\'static\',\'js/calendar.js\'))\nresponse.files.insert(3,URL(\'static\',\'js/web2py.js\'))\nresponse.files.insert(4,URL(\'static\',\'js/scdm.js\'))\nresponse.include_meta()\nresponse.include_files()\nresponse.write(\'\\n\', escape=False)\nresponse.write(\'\\n\\n\', escape=False)\n# using sidebars need to know what sidebar you want to use\nleft_sidebar_enabled = globals().get(\'left_sidebar_enabled\',False)\nright_sidebar_enabled = globals().get(\'right_sidebar_enabled\',False)\nmiddle_columns = {0:\'span12\',1:\'span9\',2:\'span6\'}[\n(left_sidebar_enabled and 1 or 0)+(right_sidebar_enabled and 1 or 0)]\nresponse.write(\'\\n\\n    <!-- uncomment here to load jquery-ui\\n         <link rel="stylesheet" href="http://ajax.googleapis.com/ajax/libs/jqueryui/1.10.3/themes/ui-lightness/jquery-ui.css" type="text/css" media="all" />\\n         <script src="http://ajax.googleapis.com/ajax/libs/jqueryui/1.10.3/jquery-ui.min.js" type="text/javascript"></script>\\n         uncomment to load jquery-ui //-->\\n    <noscript>\\n        <link href="\', escape=False)\nresponse.write(URL(\'static\', \'css/web2py_bootstrap_nojs.css\'))\nresponse.write(\'" rel="stylesheet" type="text/css"/>\\n    </noscript>\\n\', escape=False)\nresponse.write(\'\\n</head>\\n\\n<body>\\n<!-- Navbar ================================================== -->\\n<div class="navbar navbar-inverse">\\n    <div class="flash">\', escape=False)\nresponse.write(response.flash or \'\')\nresponse.write(\'</div>\\n    <div class="navbar-inner">\\n        <div class="container">\\n        \', escape=False)\nis_mobile=request.user_agent().is_mobile\nresponse.write(\'\\n            <!-- the next tag is necessary for bootstrap menus, do not remove -->\\n            <!--<button id="menu-btn" type="button" class="btn btn-navbar" data-toggle="collapse"\\n                    data-target=".nav-collapse" style="\', escape=False)\nresponse.write(\'display:none;\' if not is_mobile else \'\')\nresponse.write(\'">\\n                <span class="icon-bar"></span>\\n             </button>-->\\n            <span id="menu-btn" class="scdm-icon-menu pull-right"></span>\\n        \', escape=False)\nresponse.write(response.logo or \'\')\nresponse.write(\'\\n            <!--<ul id="navbar" class="nav pull-right">\', escape=False)\nresponse.write(\'auth\' in globals() and auth.navbar(mode="dropdown") or \'\')\nresponse.write(\'</ul>-->\\n\\n            <!--/.nav-collapse -->\\n        </div>\\n    </div>\\n</div>\\n<!--/top navbar -->\\n\\n<div class="menu-container">\\n    <div class="overlay"></div>\\n    <div class="menu-tray">\\n    \', escape=False)\nresponse.write(\'<div class="container-fluid">\\n\\n\', escape=False)\nif request.controller == \'map\':\n    response.write(\'\\n    <hr>\\n    <div class="row">\\n        <aside class="col-xs-3">\\n        \', escape=False)\n    response.write(IMG(_src=URL(\'static/images\', \'layers-128.png\'), _class="img-responsive"))\n    response.write(\'\\n        </aside>\\n        <section class="col-xs-9">\\n            <h4 style="line-height: 40px">DATA LAYERS</h4>\\n        </section>\\n    </div>\\n    <ul>\\n    \', escape=False)\n    for layer in layers:\n        response.write(\'\\n        <li>\', escape=False)\n        layer\n        response.write(\'</li>\\n    </ul>\\n    \\n    <center>\\n    <fieldset>\\n        <input type="checkbox">\\n        <label>NGS(3D)</label>\\n    </fieldset>\\n    <fieldset>\\n        <input type="checkbox">\\n        <label>NGS(2D)</label>\\n    </fieldset>\\n        </center>\\n\\n\', escape=False)\n        pass\n    response.write(\'\\n\\n\\n    <!--\\n        <form>\\n            <fieldset>\\n                <input type="checkbox">\\n                <label>NGS Horizontal(2D)</label>\\n            </fieldset>\\n        </form>-->\\n\\n</div>\', escape=False)\n    response.write(\'\\n    </div>\\n</div>\\n<div id="scdm-view">\\n\\n\\n\', escape=False)\n    response.write(\'\\n\\n<div class="scdm-container container-fluid">\\n\\n    <div class="row">\\n        <aside class="col-xs-4">\\n            <span class="glyphicon glyphicon-user scdm-icon-large"></span>\\n        </aside>\\n        <section class="col-xs-8">\\n            <h4>Registered users have access to their organization data layers</h4>\\n        </section>\\n        <!--<h2 class="text-right"><span> LOGIN</span> <span class="scdm-icon-arrow-r"></span></h2>-->\\n    \', escape=False)\n    response.write(A(H2(SPAN("LOGIN"),SPAN(\'\', _class="scdm-icon-arrow-r"), _class="text-right"), _href=\'scdm/default/user/login\'))\n    response.write(\'\\n    </div>\\n\\n    <hr>\\n    <a href="scdm/map">\\n        <div class="row">\\n            <aside class="col-xs-4 pull-left">\\n                <img class="img-responsive img-rounded"\\n                     src="http://www.techmerry.com/wp-content/uploads/2014/08/Implement-GPS-data-for-your-Google-MAP.gif">\\n            </aside>\\n            <section class="pull-right col-xs-8">\\n                <h4>Go to Data Map to see all available layers.</h4>\\n            </section>\\n            <h2 class="text-right"><span> DATA MAP</span> <span class="scdm-icon-arrow-r"></span></h2>\\n        </div>\\n    </a>\\n    <hr>\\n    <div class="row">\\n        <aside class="col-xs-4 pull-left">\\n            <span class="glyphicon glyphicon-envelope scdm-icon-large"></span>\\n        </aside>\\n        <section class="pull-right col-xs-8">\\n            <h4>Send us feedback to improve the quality of the product.</h4>\\n        </section>\\n        <h2 class="text-right"><span> SEND FEEDBACK</span> <span class="scdm-icon-arrow-r"></span></h2>\\n    </div>\\n    <hr>\\n</div>\', escape=False)\n    response.write(\'\\n\\n\\n    <!-- Footer ================================================== -->\\n    <div class="row">\\n        <footer class="footer span12" id="footer">\\n            <div class="footer-content">\\n            \', escape=False)\n    response.write(\' <!-- this is default footer -->\\n                <div>\', escape=False)\n    response.write(T(\'Copyright\'))\n    response.write(\' &#169; \', escape=False)\n    response.write(request.now.year)\n    response.write(\'</div>\\n                <div>\\n                \', escape=False)\n    response.write(T(\'Powered by\'))\n    response.write(\'\\n                    <a href="http://www.web2py.com/">web2py</a>\\n                </div>\\n            \', escape=False)\n    response.write(\'\\n            </div>\\n        </footer>\\n    </div>\\n</div>\\n<!-- /container -->\\n\\n<!-- The javascript =============================================\\n     (Placed at the end of the document so the pages load faster) -->\\n<script src="\', escape=False)\n    response.write(URL(\'static\',\'js/bootstrap.min.js\'))\n    response.write(\'"></script>\\n<script src="\', escape=False)\n    response.write(URL(\'static\',\'js/web2py_bootstrap.js\'))\n    response.write(\'"></script>\\n<!--[if lt IE 7 ]>\\n      <script src="\', escape=False)\n    response.write(URL(\'static\',\'js/dd_belatedpng.js\'))\n    response.write(\'"></script>\\n      <script> DD_belatedPNG.fix(\\\'img, .png_bg\\\'); //fix any <img> or .png_bg background-images </script>\\n      <![endif]-->\\n\\n\', escape=False)\n    if response.google_analytics_id:\n        response.write("\\n<!-- Google Analytics -->\\n<script>\\n    (function (i, s, o, g, r, a, m) {\\n        i[\'GoogleAnalyticsObject\'] = r;\\n        i[r] = i[r] || function () {\\n            (i[r].q = i[r].q || []).push(arguments)\\n        }, i[r].l = 1 * new Date();\\n        a = s.createElement(o),\\n                m = s.getElementsByTagName(o)[0];\\n        a.async = 1;\\n        a.src = g;\\n        m.parentNode.insertBefore(a, m)\\n    })(window, document, \'script\', \'//www.google-analytics.com/analytics.js\', \'ga\');\\n    ga(\'create\', \'", escape=False)\n        response.write(response.google_analytics_id)\n        response.write("\', \'auto\');\\n    ga(\'send\', \'pageview\');\\n</script>\\n<!-- End Google Analytics -->\\n", escape=False)\n        pass\n    response.write(\'\\n<script src="\', escape=False)\n    response.write(URL(\'static\',\'js/share.js\',vars=dict(static=URL(\'static\',\'images\'))))\n    response.write(\'"></script>\\n\\n<!-- Google Map API -->\\n\', escape=False)\n    if request.controller == \'map\':\n        response.write(\'\\n<script type="text/javascript"\\n        src="https://maps.googleapis.com/maps/api/js?key=AIzaSyAUCfUDlPNC-vtnlyJ1XNs-sFU0UurSsn4">\\n</script>\\n<script type="text/javascript">\\n    function initialize() {\\n        var longitude = \', escape=False)\n        response.write(longitude)\n        response.write(\';\\n        var latitude = \', escape=False)\n        response.write(latitude)\n        response.write(";\\n        var mapOptions = {\\n            center: { lat: latitude, lng: longitude},\\n            zoom: 8\\n        };\\n        var map = new google.maps.Map(document.getElementById(\'map-canvas\'),\\n                mapOptions);\\n    }\\n    google.maps.event.addDomListener(window, \'load\', initialize);\\n</script>\\n", escape=False)\n        pass\n    response.write(\'\\n</body>\\n</html>\\n\\n\', escape=False)'
p7
sS'snapshot'
p8
(dp9
S'exception'
p10
(dp11
S'__module__'
p12
S"'gluon.rocket'"
p13
sS'__getslice__'
p14
S"<method-wrapper '__getslice__' of SocketTimeout object>"
p15
sS'__str__'
p16
S"<method-wrapper '__str__' of SocketTimeout object>"
p17
sS'__reduce__'
p18
S'<built-in method __reduce__ of SocketTimeout object>'
p19
sS'__dict__'
p20
S'{}'
p21
sS'__sizeof__'
p22
S'<built-in method __sizeof__ of SocketTimeout object>'
p23
sS'__weakref__'
p24
S'None'
p25
sS'__init__'
p26
S"<method-wrapper '__init__' of SocketTimeout object>"
p27
sS'__setattr__'
p28
S"<method-wrapper '__setattr__' of SocketTimeout object>"
p29
sS'__reduce_ex__'
p30
S'<built-in method __reduce_ex__ of SocketTimeout object>'
p31
sS'__new__'
p32
S'<built-in method __new__ of type object>'
p33
sS'__format__'
p34
S'<built-in method __format__ of SocketTimeout object>'
p35
sS'__class__'
p36
S"<class 'gluon.rocket.SocketTimeout'>"
p37
sS'__doc__'
p38
S"'Exception for when a socket times out between requests.'"
p39
sS'__getitem__'
p40
S"<method-wrapper '__getitem__' of SocketTimeout object>"
p41
sS'__setstate__'
p42
S'<built-in method __setstate__ of SocketTimeout object>'
p43
sS'__getattribute__'
p44
S"<method-wrapper '__getattribute__' of SocketTimeout object>"
p45
sS'args'
p46
S"('Socket timed out before request.',)"
p47
sS'__subclasshook__'
p48
S'<built-in method __subclasshook__ of type object>'
p49
sS'__unicode__'
p50
S'<built-in method __unicode__ of SocketTimeout object>'
p51
sS'__delattr__'
p52
S"<method-wrapper '__delattr__' of SocketTimeout object>"
p53
sS'__repr__'
p54
S"<method-wrapper '__repr__' of SocketTimeout object>"
p55
sS'__hash__'
p56
S"<method-wrapper '__hash__' of SocketTimeout object>"
p57
ssS'evalue'
p58
S'Socket timed out before request.'
p59
sS'frames'
p60
(lp61
(dp62
S'file'
p63
S'/Users/sstalin/PycharmProjects/SCDM/web2py/gluon/rocket.py'
p64
sS'dump'
p65
(dp66
S'self'
p67
S'<WSGIWorker(Thread-6, started daemon 4485332992)>'
p68
sS'conn'
p69
S'<gluon.rocket.Connection object>'
p70
sS'self.run_app'
p71
S'<bound method WSGIWorker.run_app of <WSGIWorker(Thread-6, started daemon 4485332992)>>'
p72
ssS'lnum'
p73
I1337
sS'lines'
p74
(dp75
I1332
S'            # Enter connection serve loop'
p76
sI1333
S'            while True:'
p77
sI1334
S'                if __debug__:'
p78
sI1335
S"                    self.err_log.debug('Serving a request')"
p79
sI1336
S'                try:'
p80
sI1337
S'                    self.run_app(conn)'
p81
sI1338
S'                except:'
p82
sI1339
S'                    exc = sys.exc_info()'
p83
sI1340
S'                    handled = self._handleError(*exc)'
p84
sI1341
S'                    if handled:'
p85
ssS'call'
p86
S'(self=<WSGIWorker(Thread-6, started daemon 4485332992)>)'
p87
sS'func'
p88
S'run'
p89
sa(dp90
g63
S'/Users/sstalin/PycharmProjects/SCDM/web2py/gluon/rocket.py'
p91
sg65
(dp92
S'self'
p93
S'<WSGIWorker(Thread-6, started daemon 4485332992)>'
p94
sS'self.environ'
p95
S"{'HTTP_ACCEPT': 'text/html,application/xhtml+xml,application/xml;q=0.9,image/webp,*/*;q=0.8', 'HTTP_ACCEPT_ENCODING': 'gzip,deflate,sdch', 'HTTP_ACCEPT_LANGUAGE': 'en-US,en;q=0.8,bg;q=0.6', 'HTTP_CONNECTION': 'keep-alive', 'HTTP_COOKIE': 'VISITOR_ID=22470977599732578014216397423297167; ...52C1013%252C574%252C1440%252C900%252C2.5%252CL%3B', 'HTTP_HOST': 'localhost:9000', 'HTTP_REFERER': 'http://localhost:9000/scdm/map', 'HTTP_USER_AGENT': 'Mozilla/5.0 (iPhone; CPU iPhone OS 7_0 like Mac ...e Gecko) Version/7.0 Mobile/11A465 Safari/9537.53', 'PATH_INFO': '/scdm', 'QUERY_STRING': '', ...}"
p96
sS'sock_file'
p97
S'<socket._fileobject object>'
p98
sS'environ'
p99
S'undefined'
p100
sS'self.build_environ'
p101
S'<bound method WSGIWorker.build_environ of <WSGIWorker(Thread-6, started daemon 4485332992)>>'
p102
sS'conn'
p103
S'<gluon.rocket.Connection object>'
p104
ssg73
I1830
sg74
(dp105
I1825
S'        else:'
p106
sI1826
S'            sock_file = conn.makefile(BUF_SIZE)'
p107
sI1827
S''
sI1828
S'        try:'
p108
sI1829
S'            # Read the headers and build our WSGI environment'
p109
sI1830
S'            self.environ = environ = self.build_environ(sock_file, conn)'
p110
sI1831
S''
sI1832
S'            # Handle 100 Continue'
p111
sI1833
S"            if environ.get('HTTP_EXPECT', '') == '100-continue':"
p112
sI1834
S"                res = environ['SERVER_PROTOCOL'] + ' 100 Continue\\r\\n\\r\\n'"
p113
ssg86
S'(self=<WSGIWorker(Thread-6, started daemon 4485332992)>, conn=<gluon.rocket.Connection object>)'
p114
sg88
S'run_app'
p115
sa(dp116
g63
S'/Users/sstalin/PycharmProjects/SCDM/web2py/gluon/rocket.py'
p117
sg65
(dp118
S'sock_file'
p119
S'<socket._fileobject object>'
p120
sS'self.read_request_line'
p121
S'<bound method WSGIWorker.read_request_line of <WSGIWorker(Thread-6, started daemon 4485332992)>>'
p122
sS'self'
p123
S'<WSGIWorker(Thread-6, started daemon 4485332992)>'
p124
sS'request'
p125
g100
ssg73
I1650
sg74
(dp126
I1645
S'                                      "wsgiorg.futures": executor.futures})'
p127
sI1646
S''
sI1647
S'    def build_environ(self, sock_file, conn):'
p128
sI1648
S'        """ Build the execution environment. """'
p129
sI1649
S'        # Grab the request line'
p130
sI1650
S'        request = self.read_request_line(sock_file)'
p131
sI1651
S''
sI1652
S'        # Copy the Base Environment'
p132
sI1653
S'        environ = self.base_environ.copy()'
p133
sI1654
S''
ssg86
S'(self=<WSGIWorker(Thread-6, started daemon 4485332992)>, sock_file=<socket._fileobject object>, conn=<gluon.rocket.Connection object>)'
p134
sg88
S'build_environ'
p135
sa(dp136
g63
S'/Users/sstalin/PycharmProjects/SCDM/web2py/gluon/rocket.py'
p137
sg65
(dp138
S'global SocketTimeout'
p139
S"<class 'gluon.rocket.SocketTimeout'>"
p140
ssg73
I1401
sg74
(dp141
I1396
S''
sI1397
S'                d = sock_file.readline()'
p142
sI1398
S'                if PY3K:'
p143
sI1399
S"                    d = d.decode('ISO-8859-1')"
p144
sI1400
S'        except socket.timeout:'
p145
sI1401
S"            raise SocketTimeout('Socket timed out before request.')"
p146
sI1402
S'        except TypeError:'
p147
sI1403
S'            raise SocketClosed('
p148
sI1404
S"                'SSL bug caused closure of socket.  See '"
p149
sI1405
S'                \'"https://groups.google.com/d/topic/web2py/P_Gw0JxWzCs".\')'
p150
ssg86
S'(self=<WSGIWorker(Thread-6, started daemon 4485332992)>, sock_file=<socket._fileobject object>)'
p151
sg88
S'read_request_line'
p152
sasS'pyver'
p153
S'Python 2.7.2: /System/Library/Frameworks/Python.framework/Versions/2.7/Resources/Python.app/Contents/MacOS/Python (prefix: /System/Library/Frameworks/Python.framework/Versions/2.7)'
p154
sS'etype'
p155
S"<class 'gluon.rocket.SocketTimeout'>"
p156
sS'date'
p157
S'Fri Oct 31 12:53:01 2014'
p158
sS'locals'
p159
(dp160
S'sock_file'
p161
S'<socket._fileobject object>'
p162
sS'self'
p163
S'<WSGIWorker(Thread-6, started daemon 4485332992)>'
p164
sssS'traceback'
p165
S'Traceback (most recent call last):\n  File "/Users/sstalin/PycharmProjects/SCDM/web2py/gluon/rocket.py", line 1337, in run\n    self.run_app(conn)\n  File "/Users/sstalin/PycharmProjects/SCDM/web2py/gluon/rocket.py", line 1830, in run_app\n    self.environ = environ = self.build_environ(sock_file, conn)\n  File "/Users/sstalin/PycharmProjects/SCDM/web2py/gluon/rocket.py", line 1650, in build_environ\n    request = self.read_request_line(sock_file)\n  File "/Users/sstalin/PycharmProjects/SCDM/web2py/gluon/rocket.py", line 1401, in read_request_line\n    raise SocketTimeout(\'Socket timed out before request.\')\nSocketTimeout: Socket timed out before request.\n'
p166
s.