(dp1
S'output'
p2
S"<type 'exceptions.AttributeError'> 'str' object has no attribute 'value'"
p3
sS'layer'
p4
S'/Users/sstalin/PycharmProjects/SCDM/web2py/applications/scdm/views/map/index.html'
p5
sS'code'
p6
S'response.write(\'<!--[if HTML5]><![endif]-->\\n<!DOCTYPE html>\\n<!-- paulirish.com/2008/conditional-stylesheets-vs-css-hacks-answer-neither/ -->\\n<!--[if lt IE 7]><html class="ie ie6 ie-lte9 ie-lte8 ie-lte7 no-js" lang="\', escape=False)\nresponse.write(T.accepted_language or \'en\')\nresponse.write(\'"> <![endif]-->\\n<!--[if IE 7]><html class="ie ie7 ie-lte9 ie-lte8 ie-lte7 no-js" lang="\', escape=False)\nresponse.write(T.accepted_language or \'en\')\nresponse.write(\'"> <![endif]-->\\n<!--[if IE 8]><html class="ie ie8 ie-lte9 ie-lte8 no-js" lang="\', escape=False)\nresponse.write(T.accepted_language or \'en\')\nresponse.write(\'"> <![endif]-->\\n<!--[if IE 9]><html class="ie9 ie-lte9 no-js" lang="\', escape=False)\nresponse.write(T.accepted_language or \'en\')\nresponse.write(\'"> <![endif]-->\\n<!--[if (gt IE 9)|!(IE)]><!-->\\n<html class="no-js" lang="\', escape=False)\nresponse.write(T.accepted_language or \'en\')\nresponse.write(\'"> <!--<![endif]-->\\n<head>\\n    <title>\', escape=False)\nresponse.write(response.title or request.application)\nresponse.write(\'</title>\\n    <!--[if !HTML5]>\\n      <meta http-equiv="X-UA-Compatible" content="IE=edge\', escape=False)\nresponse.write(not request.is_local and \',chrome=1\' or \'\')\nresponse.write(\'">\\n  <![endif]-->\\n    <!-- www.phpied.com/conditional-comments-block-downloads/ -->\\n    <!-- Always force latest IE rendering engine\\n         (even in intranet) & Chrome Frame\\n         Remove this if you use the .htaccess -->\\n\\n    <meta charset="utf-8"/>\\n\\n    <!-- http://dev.w3.org/html5/markup/meta.name.html -->\\n    <meta name="application-name" content="\', escape=False)\nresponse.write(request.application)\nresponse.write(\'"/>\\n\\n    <!-- Speaking of Google, don\\\'t forget to set your site up:\\n         http://google.com/webmasters -->\\n    <meta name="google-site-verification" content=""/>\\n\\n    <!--  Mobile Viewport Fix\\n          j.mp/mobileviewport & davidbcalhoun.com/2010/viewport-metatag\\n          device-width: Occupy full width of the screen in its current orientation\\n          initial-scale = 1.0 retains dimensions instead of zooming out if page height > device height\\n          user-scalable = yes allows the user to zoom in -->\\n    <meta name="viewport" content="width=device-width, initial-scale=1.0"/>\\n\\n    <link rel="shortcut icon" href="\', escape=False)\nresponse.write(URL(\'static\',\'images/favicon.ico\'))\nresponse.write(\'" type="image/x-icon">\\n    <link rel="apple-touch-icon" href="\', escape=False)\nresponse.write(URL(\'static\',\'images/favicon.png\'))\nresponse.write(\'">\\n\\n    <!-- All JavaScript at the bottom, except for Modernizr which enables\\n         HTML5 elements & feature detects -->\\n    <script src="\', escape=False)\nresponse.write(URL(\'static\',\'js/modernizr.custom.js\'))\nresponse.write(\'"></script>\\n\\n    <!-- include stylesheets -->\\n\', escape=False)\nresponse.files.insert(0,URL(\'static\',\'css/web2py.css\'))\nresponse.files.insert(1,URL(\'static\',\'css/bootstrap.min.css\'))\nresponse.files.insert(2,URL(\'static\',\'css/bootstrap-responsive.min.css\'))\nresponse.files.insert(3,URL(\'static\',\'css/web2py_bootstrap.css\'))\nresponse.files.insert(4,URL(\'static\',\'css/icons.css\'))\nresponse.files.insert(5,URL(\'static\',\'css/scdm-basic.css\'))\nresponse.files.insert(6,URL(\'static\',\'css/scdm-bootstrap.css\'))\nresponse.files.insert(7,URL(\'static\',\'css/scdm-menu.css\'))\nresponse.write(\'\\n\\n\', escape=False)\nresponse.write(\'<script type="text/javascript"><!--\\n    // These variables are used by the web2py_ajax_init function in web2py_ajax.js (which is loaded below).\\n    var w2p_ajax_confirm_message = "\', escape=False)\nresponse.write(T(\'Are you sure you want to delete this object?\'))\nresponse.write(\'";\\n    var w2p_ajax_disable_with_message = "\', escape=False)\nresponse.write(T(\'Working...\'))\nresponse.write(\'";\\n    var w2p_ajax_date_format = "\', escape=False)\nresponse.write(T(\'%Y-%m-%d\'))\nresponse.write(\'";\\n    var w2p_ajax_datetime_format = "\', escape=False)\nresponse.write(T(\'%Y-%m-%d %H:%M:%S\'))\nresponse.write(\'";\\n    var ajax_error_500 = \\\'\', escape=False)\nresponse.write(T.M(\'An error occured, please [[reload %s]] the page\') % URL(args=request.args, vars=request.get_vars))\nresponse.write("\'\\n    //--></script>\\n", escape=False)\nresponse.files.insert(0,URL(\'static\',\'js/jquery.js\'))\nresponse.files.insert(1,URL(\'static\',\'css/calendar.css\'))\nresponse.files.insert(2,URL(\'static\',\'js/calendar.js\'))\nresponse.files.insert(3,URL(\'static\',\'js/web2py.js\'))\nresponse.files.insert(4,URL(\'static\',\'js/scdm.js\'))\nresponse.include_meta()\nresponse.include_files()\nresponse.write(\'\\n\', escape=False)\nresponse.write(\'\\n\\n\', escape=False)\n# using sidebars need to know what sidebar you want to use\nleft_sidebar_enabled = globals().get(\'left_sidebar_enabled\',False)\nright_sidebar_enabled = globals().get(\'right_sidebar_enabled\',False)\nmiddle_columns = {0:\'span12\',1:\'span9\',2:\'span6\'}[\n(left_sidebar_enabled and 1 or 0)+(right_sidebar_enabled and 1 or 0)]\nresponse.write(\'\\n\\n    <!-- uncomment here to load jquery-ui\\n         <link rel="stylesheet" href="http://ajax.googleapis.com/ajax/libs/jqueryui/1.10.3/themes/ui-lightness/jquery-ui.css" type="text/css" media="all" />\\n         <script src="http://ajax.googleapis.com/ajax/libs/jqueryui/1.10.3/jquery-ui.min.js" type="text/javascript"></script>\\n         uncomment to load jquery-ui //-->\\n    <noscript>\\n        <link href="\', escape=False)\nresponse.write(URL(\'static\', \'css/web2py_bootstrap_nojs.css\'))\nresponse.write(\'" rel="stylesheet" type="text/css"/>\\n    </noscript>\\n\', escape=False)\nresponse.write(\'\\n</head>\\n\\n<body>\\n<!-- Navbar ================================================== -->\\n<div class="navbar navbar-inverse">\\n    <div class="flash">\', escape=False)\nresponse.write(response.flash or \'\')\nresponse.write(\'</div>\\n    <div class="navbar-inner">\\n        <div class="container">\\n        \', escape=False)\nis_mobile=request.user_agent().is_mobile\nresponse.write(\'\\n            <!-- the next tag is necessary for bootstrap menus, do not remove -->\\n            <!--<button id="menu-btn" type="button" class="btn btn-navbar" data-toggle="collapse"\\n                    data-target=".nav-collapse" style="\', escape=False)\nresponse.write(\'display:none;\' if not is_mobile else \'\')\nresponse.write(\'">\\n                <span class="icon-bar"></span>\\n             </button>-->\\n            <span id="menu-btn" class="scdm-icon-menu pull-right"></span>\\n        \', escape=False)\nresponse.write(response.logo or \'\')\nresponse.write(\'\\n            <!--<ul id="navbar" class="nav pull-right">\', escape=False)\nresponse.write(\'auth\' in globals() and auth.navbar(mode="dropdown") or \'\')\nresponse.write(\'</ul>-->\\n\\n            <!--/.nav-collapse -->\\n        </div>\\n    </div>\\n</div>\\n<!--/top navbar -->\\n\\n<div class="menu-container">\\n    <div class="overlay"></div>\\n    <div class="menu-tray">\\n    \', escape=False)\nresponse.write(\'<div class="container-fluid">\\n\\n\', escape=False)\nif request.controller == \'map\':\n    response.write(\'\\n\', escape=False)\n    response.write(\'<hr>\\n<div class="row">\\n    <aside class="col-xs-3">\\n    \', escape=False)\n    response.write(IMG(_src=URL(\'static/images\', \'layers-128.png\'), _class="img-responsive"))\n    response.write(\'\\n    </aside>\\n    <section class="col-xs-9">\\n        <h4 style="line-height: 40px">DATA LAYERS</h4>\\n    </section>\\n</div>\\n<ul>\\n\', escape=False)\n    for layer in response.layers:\n        response.write(\'\\n<li>\', escape=False)\n        layer.value\n        response.write(\'</li>\\n    \', escape=False)\n        pass\n    response.write(\'\\n</ul>\\n\', escape=False)\n    response.write(\'\\n\\n\', escape=False)\n    pass\nresponse.write(\'\\n\\n\\n    <!--\\n        <form>\\n            <fieldset>\\n                <input type="checkbox">\\n                <label>NGS Horizontal(2D)</label>\\n            </fieldset>\\n        </form>-->\\n\\n</div>\', escape=False)\nresponse.write(\'\\n    </div>\\n</div>\\n<div id="scdm-view">\\n\\n\\n\', escape=False)\nresponse.write(\'\\n\\n<div id="map-canvas" style="height: 100%"></div>\\n\', escape=False)\nresponse.write(\'\\n\\n\\n    <!-- Footer ================================================== -->\\n    <div class="row">\\n        <footer class="footer span12" id="footer">\\n            <div class="footer-content">\\n            \', escape=False)\nresponse.write(\' <!-- this is default footer -->\\n                <div>\', escape=False)\nresponse.write(T(\'Copyright\'))\nresponse.write(\' &#169; \', escape=False)\nresponse.write(request.now.year)\nresponse.write(\'</div>\\n                <div>\\n                \', escape=False)\nresponse.write(T(\'Powered by\'))\nresponse.write(\'\\n                    <a href="http://www.web2py.com/">web2py</a>\\n                </div>\\n            \', escape=False)\nresponse.write(\'\\n            </div>\\n        </footer>\\n    </div>\\n</div>\\n<!-- /container -->\\n\\n<!-- The javascript =============================================\\n     (Placed at the end of the document so the pages load faster) -->\\n<script src="\', escape=False)\nresponse.write(URL(\'static\',\'js/bootstrap.min.js\'))\nresponse.write(\'"></script>\\n<script src="\', escape=False)\nresponse.write(URL(\'static\',\'js/web2py_bootstrap.js\'))\nresponse.write(\'"></script>\\n<!--[if lt IE 7 ]>\\n      <script src="\', escape=False)\nresponse.write(URL(\'static\',\'js/dd_belatedpng.js\'))\nresponse.write(\'"></script>\\n      <script> DD_belatedPNG.fix(\\\'img, .png_bg\\\'); //fix any <img> or .png_bg background-images </script>\\n      <![endif]-->\\n\\n\', escape=False)\nif response.google_analytics_id:\n    response.write("\\n<!-- Google Analytics -->\\n<script>\\n    (function (i, s, o, g, r, a, m) {\\n        i[\'GoogleAnalyticsObject\'] = r;\\n        i[r] = i[r] || function () {\\n            (i[r].q = i[r].q || []).push(arguments)\\n        }, i[r].l = 1 * new Date();\\n        a = s.createElement(o),\\n                m = s.getElementsByTagName(o)[0];\\n        a.async = 1;\\n        a.src = g;\\n        m.parentNode.insertBefore(a, m)\\n    })(window, document, \'script\', \'//www.google-analytics.com/analytics.js\', \'ga\');\\n    ga(\'create\', \'", escape=False)\n    response.write(response.google_analytics_id)\n    response.write("\', \'auto\');\\n    ga(\'send\', \'pageview\');\\n</script>\\n<!-- End Google Analytics -->\\n", escape=False)\n    pass\nresponse.write(\'\\n<script src="\', escape=False)\nresponse.write(URL(\'static\',\'js/share.js\',vars=dict(static=URL(\'static\',\'images\'))))\nresponse.write(\'"></script>\\n\\n<!-- Google Map API -->\\n\', escape=False)\nif request.controller == \'map\':\n    response.write(\'\\n<script type="text/javascript"\\n        src="https://maps.googleapis.com/maps/api/js?key=AIzaSyAUCfUDlPNC-vtnlyJ1XNs-sFU0UurSsn4">\\n</script>\\n<script type="text/javascript">\\n    function initialize() {\\n        var longitude = \', escape=False)\n    response.write(longitude)\n    response.write(\';\\n        var latitude = \', escape=False)\n    response.write(latitude)\n    response.write(";\\n        var mapOptions = {\\n            center: { lat: latitude, lng: longitude},\\n            zoom: 8\\n        };\\n        var map = new google.maps.Map(document.getElementById(\'map-canvas\'),\\n                mapOptions);\\n    }\\n    google.maps.event.addDomListener(window, \'load\', initialize);\\n</script>\\n", escape=False)\n    pass\nresponse.write(\'\\n</body>\\n</html>\\n\\n\', escape=False)'
p7
sS'snapshot'
p8
(dp9
sS'traceback'
p10
S'Traceback (most recent call last):\n  File "/Users/sstalin/PycharmProjects/SCDM/web2py/gluon/restricted.py", line 224, in restricted\n    exec ccode in environment\n  File "/Users/sstalin/PycharmProjects/SCDM/web2py/applications/scdm/views/map/index.html", line 80, in <module>\nAttributeError: \'str\' object has no attribute \'value\'\n'
p11
s.